target datalayout = "e-m:e-p270:32:32-p271:32:32-p272:64:64-i64:64-i128:128-f80:128-n8:16:32:64-S128"
target triple = "x86_64-unknown-linux-gnu"

%struct.b2ContactRegister = type { ptr, ptr, i8 }
%class.b2Fixture = type { float, ptr, ptr, ptr, float, float, float, ptr, i32, %struct.b2Filter, i8, %struct.b2FixtureUserData }
%struct.b2Filter = type { i16, i16, i16 }
%struct.b2FixtureUserData = type { i64 }
%class.b2Shape = type { ptr, i32, float }

@_ZN9b2Contact11s_registersE = global [4 x [4 x %struct.b2ContactRegister]] zeroinitializer, align 16
@_ZN9b2Contact13s_initializedE = global i8 0, align 1

; Function Attrs: mustprogress nounwind uwtable
define linkonce_odr hidden noundef i32 @_ZNK7b2Shape7GetTypeEv(ptr noundef nonnull align 8 dereferenceable(16) %this) #1 comdat align 2 {
entry:
  %this.addr = alloca ptr, align 8
  store ptr %this, ptr %this.addr, align 8
  %this1 = load ptr, ptr %this.addr, align 8
  %m_type = getelementptr inbounds %class.b2Shape, ptr %this1, i32 0, i32 1
  %0 = load i32, ptr %m_type, align 8
  ret i32 %0
}

; Function Attrs: mustprogress nounwind uwtable
define void @_ZN9b2Contact7AddTypeEPFPS_P9b2FixtureiS2_iP16b2BlockAllocatorEPFvS0_S4_EN7b2Shape4TypeESA_(ptr noundef %createFcn, ptr noundef %destoryFcn, i32 noundef %type1, i32 noundef %type2) #1 align 2 {
entry:
  %createFcn.addr = alloca ptr, align 8
  %destoryFcn.addr = alloca ptr, align 8
  %type1.addr = alloca i32, align 4
  %type2.addr = alloca i32, align 4
  store ptr %createFcn, ptr %createFcn.addr, align 8
  store ptr %destoryFcn, ptr %destoryFcn.addr, align 8
  store i32 %type1, ptr %type1.addr, align 4
  store i32 %type2, ptr %type2.addr, align 4
  %0 = load ptr, ptr %createFcn.addr, align 8
  %1 = load i32, ptr %type1.addr, align 4
  %idxprom = zext i32 %1 to i64
  %arrayidx = getelementptr inbounds [4 x [4 x %struct.b2ContactRegister]], ptr @_ZN9b2Contact11s_registersE, i64 0, i64 %idxprom
  %2 = load i32, ptr %type2.addr, align 4
  %idxprom1 = zext i32 %2 to i64
  %arrayidx2 = getelementptr inbounds [4 x %struct.b2ContactRegister], ptr %arrayidx, i64 0, i64 %idxprom1
  %createFcn3 = getelementptr inbounds %struct.b2ContactRegister, ptr %arrayidx2, i32 0, i32 0
  store ptr %0, ptr %createFcn3, align 8
  %3 = load ptr, ptr %destoryFcn.addr, align 8
  %4 = load i32, ptr %type1.addr, align 4
  %idxprom4 = zext i32 %4 to i64
  %arrayidx5 = getelementptr inbounds [4 x [4 x %struct.b2ContactRegister]], ptr @_ZN9b2Contact11s_registersE, i64 0, i64 %idxprom4
  %5 = load i32, ptr %type2.addr, align 4
  %idxprom6 = zext i32 %5 to i64
  %arrayidx7 = getelementptr inbounds [4 x %struct.b2ContactRegister], ptr %arrayidx5, i64 0, i64 %idxprom6
  %destroyFcn = getelementptr inbounds %struct.b2ContactRegister, ptr %arrayidx7, i32 0, i32 1
  store ptr %3, ptr %destroyFcn, align 8
  %6 = load i32, ptr %type1.addr, align 4
  %idxprom8 = zext i32 %6 to i64
  %arrayidx9 = getelementptr inbounds [4 x [4 x %struct.b2ContactRegister]], ptr @_ZN9b2Contact11s_registersE, i64 0, i64 %idxprom8
  %7 = load i32, ptr %type2.addr, align 4
  %idxprom10 = zext i32 %7 to i64
  %arrayidx11 = getelementptr inbounds [4 x %struct.b2ContactRegister], ptr %arrayidx9, i64 0, i64 %idxprom10
  %primary = getelementptr inbounds %struct.b2ContactRegister, ptr %arrayidx11, i32 0, i32 2
  store i8 1, ptr %primary, align 8
  %8 = load i32, ptr %type1.addr, align 4
  %9 = load i32, ptr %type2.addr, align 4
  %cmp = icmp ne i32 %8, %9
  br i1 %cmp, label %if.then, label %if.end

if.then:                                          ; preds = %entry
  %10 = load ptr, ptr %createFcn.addr, align 8
  %11 = load i32, ptr %type2.addr, align 4
  %idxprom12 = zext i32 %11 to i64
  %arrayidx13 = getelementptr inbounds [4 x [4 x %struct.b2ContactRegister]], ptr @_ZN9b2Contact11s_registersE, i64 0, i64 %idxprom12
  %12 = load i32, ptr %type1.addr, align 4
  %idxprom14 = zext i32 %12 to i64
  %arrayidx15 = getelementptr inbounds [4 x %struct.b2ContactRegister], ptr %arrayidx13, i64 0, i64 %idxprom14
  %createFcn16 = getelementptr inbounds %struct.b2ContactRegister, ptr %arrayidx15, i32 0, i32 0
  store ptr %10, ptr %createFcn16, align 8
  %13 = load ptr, ptr %destoryFcn.addr, align 8
  %14 = load i32, ptr %type2.addr, align 4
  %idxprom17 = zext i32 %14 to i64
  %arrayidx18 = getelementptr inbounds [4 x [4 x %struct.b2ContactRegister]], ptr @_ZN9b2Contact11s_registersE, i64 0, i64 %idxprom17
  %15 = load i32, ptr %type1.addr, align 4
  %idxprom19 = zext i32 %15 to i64
  %arrayidx20 = getelementptr inbounds [4 x %struct.b2ContactRegister], ptr %arrayidx18, i64 0, i64 %idxprom19
  %destroyFcn21 = getelementptr inbounds %struct.b2ContactRegister, ptr %arrayidx20, i32 0, i32 1
  store ptr %13, ptr %destroyFcn21, align 8
  %16 = load i32, ptr %type2.addr, align 4
  %idxprom22 = zext i32 %16 to i64
  %arrayidx23 = getelementptr inbounds [4 x [4 x %struct.b2ContactRegister]], ptr @_ZN9b2Contact11s_registersE, i64 0, i64 %idxprom22
  %17 = load i32, ptr %type1.addr, align 4
  %idxprom24 = zext i32 %17 to i64
  %arrayidx25 = getelementptr inbounds [4 x %struct.b2ContactRegister], ptr %arrayidx23, i64 0, i64 %idxprom24
  %primary26 = getelementptr inbounds %struct.b2ContactRegister, ptr %arrayidx25, i32 0, i32 2
  store i8 0, ptr %primary26, align 8
  br label %if.end

if.end:                                           ; preds = %if.then, %entry
  ret void
}

; Function Attrs: mustprogress uwtable
define linkonce_odr hidden noundef i32 @_ZNK9b2Fixture7GetTypeEv(ptr noundef nonnull align 8 dereferenceable(80) %this) #0 comdat align 2 {
entry:
  %this.addr = alloca ptr, align 8
  store ptr %this, ptr %this.addr, align 8
  %this1 = load ptr, ptr %this.addr, align 8
  %m_shape = getelementptr inbounds %class.b2Fixture, ptr %this1, i32 0, i32 3
  %0 = load ptr, ptr %m_shape, align 8
  %call = call noundef i32 @_ZNK7b2Shape7GetTypeEv(ptr noundef nonnull align 8 dereferenceable(16) %0)
  ret i32 %call
}

; Function Attrs: mustprogress uwtable
define void @_ZN9b2Contact19InitializeRegistersEv() #0 align 2 {
entry:
  call void @_ZN9b2Contact7AddTypeEPFPS_P9b2FixtureiS2_iP16b2BlockAllocatorEPFvS0_S4_EN7b2Shape4TypeESA_(ptr noundef @_ZN15b2CircleContact6CreateEP9b2FixtureiS1_iP16b2BlockAllocator, ptr noundef @_ZN15b2CircleContact7DestroyEP9b2ContactP16b2BlockAllocator, i32 noundef 0, i32 noundef 0)
  call void @_ZN9b2Contact7AddTypeEPFPS_P9b2FixtureiS2_iP16b2BlockAllocatorEPFvS0_S4_EN7b2Shape4TypeESA_(ptr noundef @_ZN25b2PolygonAndCircleContact6CreateEP9b2FixtureiS1_iP16b2BlockAllocator, ptr noundef @_ZN25b2PolygonAndCircleContact7DestroyEP9b2ContactP16b2BlockAllocator, i32 noundef 2, i32 noundef 0)
  call void @_ZN9b2Contact7AddTypeEPFPS_P9b2FixtureiS2_iP16b2BlockAllocatorEPFvS0_S4_EN7b2Shape4TypeESA_(ptr noundef @_ZN16b2PolygonContact6CreateEP9b2FixtureiS1_iP16b2BlockAllocator, ptr noundef @_ZN16b2PolygonContact7DestroyEP9b2ContactP16b2BlockAllocator, i32 noundef 2, i32 noundef 2)
  call void @_ZN9b2Contact7AddTypeEPFPS_P9b2FixtureiS2_iP16b2BlockAllocatorEPFvS0_S4_EN7b2Shape4TypeESA_(ptr noundef @_ZN22b2EdgeAndCircleContact6CreateEP9b2FixtureiS1_iP16b2BlockAllocator, ptr noundef @_ZN22b2EdgeAndCircleContact7DestroyEP9b2ContactP16b2BlockAllocator, i32 noundef 1, i32 noundef 0)
  call void @_ZN9b2Contact7AddTypeEPFPS_P9b2FixtureiS2_iP16b2BlockAllocatorEPFvS0_S4_EN7b2Shape4TypeESA_(ptr noundef @_ZN23b2EdgeAndPolygonContact6CreateEP9b2FixtureiS1_iP16b2BlockAllocator, ptr noundef @_ZN23b2EdgeAndPolygonContact7DestroyEP9b2ContactP16b2BlockAllocator, i32 noundef 1, i32 noundef 2)
  call void @_ZN9b2Contact7AddTypeEPFPS_P9b2FixtureiS2_iP16b2BlockAllocatorEPFvS0_S4_EN7b2Shape4TypeESA_(ptr noundef @_ZN23b2ChainAndCircleContact6CreateEP9b2FixtureiS1_iP16b2BlockAllocator, ptr noundef @_ZN23b2ChainAndCircleContact7DestroyEP9b2ContactP16b2BlockAllocator, i32 noundef 3, i32 noundef 0)
  call void @_ZN9b2Contact7AddTypeEPFPS_P9b2FixtureiS2_iP16b2BlockAllocatorEPFvS0_S4_EN7b2Shape4TypeESA_(ptr noundef @_ZN24b2ChainAndPolygonContact6CreateEP9b2FixtureiS1_iP16b2BlockAllocator, ptr noundef @_ZN24b2ChainAndPolygonContact7DestroyEP9b2ContactP16b2BlockAllocator, i32 noundef 3, i32 noundef 2)
  ret void
}

; Function Attrs: mustprogress uwtable
define noundef ptr @_ZN9b2Contact6CreateEP9b2FixtureiS1_iP16b2BlockAllocator(ptr noundef %fixtureA, i32 noundef %indexA, ptr noundef %fixtureB, i32 noundef %indexB, ptr noundef %allocator) #0 align 2 {
entry:
  %retval = alloca ptr, align 8
  %fixtureA.addr = alloca ptr, align 8
  %indexA.addr = alloca i32, align 4
  %fixtureB.addr = alloca ptr, align 8
  %indexB.addr = alloca i32, align 4
  %allocator.addr = alloca ptr, align 8
  %type1 = alloca i32, align 4
  %type2 = alloca i32, align 4
  %createFcn = alloca ptr, align 8
  store ptr %fixtureA, ptr %fixtureA.addr, align 8
  store i32 %indexA, ptr %indexA.addr, align 4
  store ptr %fixtureB, ptr %fixtureB.addr, align 8
  store i32 %indexB, ptr %indexB.addr, align 4
  store ptr %allocator, ptr %allocator.addr, align 8
  %0 = load i8, ptr @_ZN9b2Contact13s_initializedE, align 1
  %tobool = trunc i8 %0 to i1
  %conv = zext i1 %tobool to i32
  %cmp = icmp eq i32 %conv, 0
  br i1 %cmp, label %if.then, label %if.end

if.then:                                          ; preds = %entry
  call void @_ZN9b2Contact19InitializeRegistersEv()
  store i8 1, ptr @_ZN9b2Contact13s_initializedE, align 1
  br label %if.end

if.end:                                           ; preds = %if.then, %entry
  %1 = load ptr, ptr %fixtureA.addr, align 8
  %call = call noundef i32 @_ZNK9b2Fixture7GetTypeEv(ptr noundef nonnull align 8 dereferenceable(80) %1)
  store i32 %call, ptr %type1, align 4
  %2 = load ptr, ptr %fixtureB.addr, align 8
  %call1 = call noundef i32 @_ZNK9b2Fixture7GetTypeEv(ptr noundef nonnull align 8 dereferenceable(80) %2)
  store i32 %call1, ptr %type2, align 4
  %3 = load i32, ptr %type1, align 4
  %idxprom = zext i32 %3 to i64
  %arrayidx = getelementptr inbounds [4 x [4 x %struct.b2ContactRegister]], ptr @_ZN9b2Contact11s_registersE, i64 0, i64 %idxprom
  %4 = load i32, ptr %type2, align 4
  %idxprom2 = zext i32 %4 to i64
  %arrayidx3 = getelementptr inbounds [4 x %struct.b2ContactRegister], ptr %arrayidx, i64 0, i64 %idxprom2
  %createFcn4 = getelementptr inbounds %struct.b2ContactRegister, ptr %arrayidx3, i32 0, i32 0
  %5 = load ptr, ptr %createFcn4, align 8
  store ptr %5, ptr %createFcn, align 8
  %6 = load ptr, ptr %createFcn, align 8
  %tobool5 = icmp ne ptr %6, null
  br i1 %tobool5, label %if.then6, label %if.else15

if.then6:                                         ; preds = %if.end
  %7 = load i32, ptr %type1, align 4
  %idxprom7 = zext i32 %7 to i64
  %arrayidx8 = getelementptr inbounds [4 x [4 x %struct.b2ContactRegister]], ptr @_ZN9b2Contact11s_registersE, i64 0, i64 %idxprom7
  %8 = load i32, ptr %type2, align 4
  %idxprom9 = zext i32 %8 to i64
  %arrayidx10 = getelementptr inbounds [4 x %struct.b2ContactRegister], ptr %arrayidx8, i64 0, i64 %idxprom9
  %primary = getelementptr inbounds %struct.b2ContactRegister, ptr %arrayidx10, i32 0, i32 2
  %9 = load i8, ptr %primary, align 8
  %tobool11 = trunc i8 %9 to i1
  br i1 %tobool11, label %if.then12, label %if.else

if.then12:                                        ; preds = %if.then6
  %10 = load ptr, ptr %createFcn, align 8
  %11 = load ptr, ptr %fixtureA.addr, align 8
  %12 = load i32, ptr %indexA.addr, align 4
  %13 = load ptr, ptr %fixtureB.addr, align 8
  %14 = load i32, ptr %indexB.addr, align 4
  %15 = load ptr, ptr %allocator.addr, align 8
  %call13 = call noundef ptr %10(ptr noundef %11, i32 noundef %12, ptr noundef %13, i32 noundef %14, ptr noundef %15)
  store ptr %call13, ptr %retval, align 8
  br label %return

if.else:                                          ; preds = %if.then6
  %16 = load ptr, ptr %createFcn, align 8
  %17 = load ptr, ptr %fixtureB.addr, align 8
  %18 = load i32, ptr %indexB.addr, align 4
  %19 = load ptr, ptr %fixtureA.addr, align 8
  %20 = load i32, ptr %indexA.addr, align 4
  %21 = load ptr, ptr %allocator.addr, align 8
  %call14 = call noundef ptr %16(ptr noundef %17, i32 noundef %18, ptr noundef %19, i32 noundef %20, ptr noundef %21)
  store ptr %call14, ptr %retval, align 8
  br label %return

if.else15:                                        ; preds = %if.end
  store ptr null, ptr %retval, align 8
  br label %return

return:                                           ; preds = %if.else15, %if.else, %if.then12
  %22 = load ptr, ptr %retval, align 8
  ret ptr %22
}