; Function Attrs: mustprogress uwtable
define noundef ptr @_ZN9b2Contact6CreateEP9b2FixtureiS1_iP16b2BlockAllocator(ptr noundef %fixtureA, i32 noundef %indexA, ptr noundef %fixtureB, i32 noundef %indexB, ptr noundef %allocator) local_unnamed_addr #2 align 2 {
entry:
  %0 = load i8, ptr @_ZN9b2Contact13s_initializedE, align 1
  %1 = and i8 %0, 1
  %cmp = icmp eq i8 %1, 0
  br i1 %cmp, label %if.then, label %if.end

if.then:                                          ; preds = %entry
  store ptr @_ZN15b2CircleContact6CreateEP9b2FixtureiS1_iP16b2BlockAllocator, ptr @_ZN9b2Contact11s_registersE, align 16
  store ptr @_ZN15b2CircleContact7DestroyEP9b2ContactP16b2BlockAllocator, ptr getelementptr inbounds ([4 x [4 x %struct.b2ContactRegister]], ptr @_ZN9b2Contact11s_registersE, i64 0, i64 0, i64 0, i32 1), align 8
  store i8 1, ptr getelementptr inbounds ([4 x [4 x %struct.b2ContactRegister]], ptr @_ZN9b2Contact11s_registersE, i64 0, i64 0, i64 0, i32 2), align 16
  store ptr @_ZN25b2PolygonAndCircleContact6CreateEP9b2FixtureiS1_iP16b2BlockAllocator, ptr getelementptr inbounds ([4 x [4 x %struct.b2ContactRegister]], ptr @_ZN9b2Contact11s_registersE, i64 0, i64 2, i64 0), align 16
  store ptr @_ZN25b2PolygonAndCircleContact7DestroyEP9b2ContactP16b2BlockAllocator, ptr getelementptr inbounds ([4 x [4 x %struct.b2ContactRegister]], ptr @_ZN9b2Contact11s_registersE, i64 0, i64 2, i64 0, i32 1), align 8
  store i8 1, ptr getelementptr inbounds ([4 x [4 x %struct.b2ContactRegister]], ptr @_ZN9b2Contact11s_registersE, i64 0, i64 2, i64 0, i32 2), align 16
  store ptr @_ZN25b2PolygonAndCircleContact6CreateEP9b2FixtureiS1_iP16b2BlockAllocator, ptr getelementptr inbounds ([4 x [4 x %struct.b2ContactRegister]], ptr @_ZN9b2Contact11s_registersE, i64 0, i64 0, i64 2), align 16
  store ptr @_ZN25b2PolygonAndCircleContact7DestroyEP9b2ContactP16b2BlockAllocator, ptr getelementptr inbounds ([4 x [4 x %struct.b2ContactRegister]], ptr @_ZN9b2Contact11s_registersE, i64 0, i64 0, i64 2, i32 1), align 8
  store i8 0, ptr getelementptr inbounds ([4 x [4 x %struct.b2ContactRegister]], ptr @_ZN9b2Contact11s_registersE, i64 0, i64 0, i64 2, i32 2), align 16
  store ptr @_ZN16b2PolygonContact6CreateEP9b2FixtureiS1_iP16b2BlockAllocator, ptr getelementptr inbounds ([4 x [4 x %struct.b2ContactRegister]], ptr @_ZN9b2Contact11s_registersE, i64 0, i64 2, i64 2), align 16
  store ptr @_ZN16b2PolygonContact7DestroyEP9b2ContactP16b2BlockAllocator, ptr getelementptr inbounds ([4 x [4 x %struct.b2ContactRegister]], ptr @_ZN9b2Contact11s_registersE, i64 0, i64 2, i64 2, i32 1), align 8
  store i8 1, ptr getelementptr inbounds ([4 x [4 x %struct.b2ContactRegister]], ptr @_ZN9b2Contact11s_registersE, i64 0, i64 2, i64 2, i32 2), align 16
  store ptr @_ZN22b2EdgeAndCircleContact6CreateEP9b2FixtureiS1_iP16b2BlockAllocator, ptr getelementptr inbounds ([4 x [4 x %struct.b2ContactRegister]], ptr @_ZN9b2Contact11s_registersE, i64 0, i64 1, i64 0), align 16
  store ptr @_ZN22b2EdgeAndCircleContact7DestroyEP9b2ContactP16b2BlockAllocator, ptr getelementptr inbounds ([4 x [4 x %struct.b2ContactRegister]], ptr @_ZN9b2Contact11s_registersE, i64 0, i64 1, i64 0, i32 1), align 8
  store i8 1, ptr getelementptr inbounds ([4 x [4 x %struct.b2ContactRegister]], ptr @_ZN9b2Contact11s_registersE, i64 0, i64 1, i64 0, i32 2), align 16
  store ptr @_ZN22b2EdgeAndCircleContact6CreateEP9b2FixtureiS1_iP16b2BlockAllocator, ptr getelementptr inbounds ([4 x [4 x %struct.b2ContactRegister]], ptr @_ZN9b2Contact11s_registersE, i64 0, i64 0, i64 1), align 8
  store ptr @_ZN22b2EdgeAndCircleContact7DestroyEP9b2ContactP16b2BlockAllocator, ptr getelementptr inbounds ([4 x [4 x %struct.b2ContactRegister]], ptr @_ZN9b2Contact11s_registersE, i64 0, i64 0, i64 1, i32 1), align 16
  store i8 0, ptr getelementptr inbounds ([4 x [4 x %struct.b2ContactRegister]], ptr @_ZN9b2Contact11s_registersE, i64 0, i64 0, i64 1, i32 2), align 8
  store ptr @_ZN23b2EdgeAndPolygonContact6CreateEP9b2FixtureiS1_iP16b2BlockAllocator, ptr getelementptr inbounds ([4 x [4 x %struct.b2ContactRegister]], ptr @_ZN9b2Contact11s_registersE, i64 0, i64 1, i64 2), align 16
  store ptr @_ZN23b2EdgeAndPolygonContact7DestroyEP9b2ContactP16b2BlockAllocator, ptr getelementptr inbounds ([4 x [4 x %struct.b2ContactRegister]], ptr @_ZN9b2Contact11s_registersE, i64 0, i64 1, i64 2, i32 1), align 8
  store i8 1, ptr getelementptr inbounds ([4 x [4 x %struct.b2ContactRegister]], ptr @_ZN9b2Contact11s_registersE, i64 0, i64 1, i64 2, i32 2), align 16
  store ptr @_ZN23b2EdgeAndPolygonContact6CreateEP9b2FixtureiS1_iP16b2BlockAllocator, ptr getelementptr inbounds ([4 x [4 x %struct.b2ContactRegister]], ptr @_ZN9b2Contact11s_registersE, i64 0, i64 2, i64 1), align 8
  store ptr @_ZN23b2EdgeAndPolygonContact7DestroyEP9b2ContactP16b2BlockAllocator, ptr getelementptr inbounds ([4 x [4 x %struct.b2ContactRegister]], ptr @_ZN9b2Contact11s_registersE, i64 0, i64 2, i64 1, i32 1), align 16
  store i8 0, ptr getelementptr inbounds ([4 x [4 x %struct.b2ContactRegister]], ptr @_ZN9b2Contact11s_registersE, i64 0, i64 2, i64 1, i32 2), align 8
  store ptr @_ZN23b2ChainAndCircleContact6CreateEP9b2FixtureiS1_iP16b2BlockAllocator, ptr getelementptr inbounds ([4 x [4 x %struct.b2ContactRegister]], ptr @_ZN9b2Contact11s_registersE, i64 0, i64 3, i64 0), align 16
  store ptr @_ZN23b2ChainAndCircleContact7DestroyEP9b2ContactP16b2BlockAllocator, ptr getelementptr inbounds ([4 x [4 x %struct.b2ContactRegister]], ptr @_ZN9b2Contact11s_registersE, i64 0, i64 3, i64 0, i32 1), align 8
  store i8 1, ptr getelementptr inbounds ([4 x [4 x %struct.b2ContactRegister]], ptr @_ZN9b2Contact11s_registersE, i64 0, i64 3, i64 0, i32 2), align 16
  store ptr @_ZN23b2ChainAndCircleContact6CreateEP9b2FixtureiS1_iP16b2BlockAllocator, ptr getelementptr inbounds ([4 x [4 x %struct.b2ContactRegister]], ptr @_ZN9b2Contact11s_registersE, i64 0, i64 0, i64 3), align 8
  store ptr @_ZN23b2ChainAndCircleContact7DestroyEP9b2ContactP16b2BlockAllocator, ptr getelementptr inbounds ([4 x [4 x %struct.b2ContactRegister]], ptr @_ZN9b2Contact11s_registersE, i64 0, i64 0, i64 3, i32 1), align 16
  store i8 0, ptr getelementptr inbounds ([4 x [4 x %struct.b2ContactRegister]], ptr @_ZN9b2Contact11s_registersE, i64 0, i64 0, i64 3, i32 2), align 8
  store ptr @_ZN24b2ChainAndPolygonContact6CreateEP9b2FixtureiS1_iP16b2BlockAllocator, ptr getelementptr inbounds ([4 x [4 x %struct.b2ContactRegister]], ptr @_ZN9b2Contact11s_registersE, i64 0, i64 3, i64 2), align 16
  store ptr @_ZN24b2ChainAndPolygonContact7DestroyEP9b2ContactP16b2BlockAllocator, ptr getelementptr inbounds ([4 x [4 x %struct.b2ContactRegister]], ptr @_ZN9b2Contact11s_registersE, i64 0, i64 3, i64 2, i32 1), align 8
  store i8 1, ptr getelementptr inbounds ([4 x [4 x %struct.b2ContactRegister]], ptr @_ZN9b2Contact11s_registersE, i64 0, i64 3, i64 2, i32 2), align 16
  store ptr @_ZN24b2ChainAndPolygonContact6CreateEP9b2FixtureiS1_iP16b2BlockAllocator, ptr getelementptr inbounds ([4 x [4 x %struct.b2ContactRegister]], ptr @_ZN9b2Contact11s_registersE, i64 0, i64 2, i64 3), align 8
  store ptr @_ZN24b2ChainAndPolygonContact7DestroyEP9b2ContactP16b2BlockAllocator, ptr getelementptr inbounds ([4 x [4 x %struct.b2ContactRegister]], ptr @_ZN9b2Contact11s_registersE, i64 0, i64 2, i64 3, i32 1), align 16
  store i8 0, ptr getelementptr inbounds ([4 x [4 x %struct.b2ContactRegister]], ptr @_ZN9b2Contact11s_registersE, i64 0, i64 2, i64 3, i32 2), align 8
  store i8 1, ptr @_ZN9b2Contact13s_initializedE, align 1
  br label %if.end

if.end:                                           ; preds = %if.then, %entry
  %m_shape.i = getelementptr inbounds i8, ptr %fixtureA, i64 24
  %2 = load ptr, ptr %m_shape.i, align 8
  %m_type.i.i = getelementptr inbounds i8, ptr %2, i64 8
  %3 = load i32, ptr %m_type.i.i, align 8
  %m_shape.i12 = getelementptr inbounds i8, ptr %fixtureB, i64 24
  %4 = load ptr, ptr %m_shape.i12, align 8
  %m_type.i.i13 = getelementptr inbounds i8, ptr %4, i64 8
  %5 = load i32, ptr %m_type.i.i13, align 8
  %idxprom = zext i32 %3 to i64
  %idxprom2 = zext i32 %5 to i64
  %arrayidx3 = getelementptr inbounds [4 x [4 x %struct.b2ContactRegister]], ptr @_ZN9b2Contact11s_registersE, i64 0, i64 %idxprom, i64 %idxprom2
  %6 = load ptr, ptr %arrayidx3, align 8
  %tobool5.not = icmp eq ptr %6, null
  br i1 %tobool5.not, label %return, label %if.then6

if.then6:                                         ; preds = %if.end
  %primary = getelementptr inbounds i8, ptr %arrayidx3, i64 16
  %7 = load i8, ptr %primary, align 8
  %8 = and i8 %7, 1
  %tobool11.not = icmp eq i8 %8, 0
  br i1 %tobool11.not, label %if.else, label %if.then12

if.then12:                                        ; preds = %if.then6
  %call13 = tail call noundef ptr %6(ptr noundef nonnull %fixtureA, i32 noundef %indexA, ptr noundef nonnull %fixtureB, i32 noundef %indexB, ptr noundef %allocator)
  br label %return

if.else:                                          ; preds = %if.then6
  %call14 = tail call noundef ptr %6(ptr noundef nonnull %fixtureB, i32 noundef %indexB, ptr noundef nonnull %fixtureA, i32 noundef %indexA, ptr noundef %allocator)
  br label %return

return:                                           ; preds = %if.end, %if.else, %if.then12
  %retval.0 = phi ptr [ %call13, %if.then12 ], [ %call14, %if.else ], [ null, %if.end ]
  ret ptr %retval.0
}